; ModuleID = '44/838.c'
source_filename = "44/838.c"
target datalayout = "e-m:e-p270:32:32-p271:32:32-p272:64:64-i64:64-f80:128-n8:16:32:64-S128"
target triple = "x86_64-pc-linux-gnu"

@.str = private unnamed_addr constant [3 x i8] c"0\0A\00", align 1
@.str.1 = private unnamed_addr constant [2 x i8] c"-\00", align 1
@.str.2 = private unnamed_addr constant [3 x i8] c"%c\00", align 1
@.str.3 = private unnamed_addr constant [2 x i8] c"\0A\00", align 1

; Function Attrs: noinline nounwind uwtable
define dso_local void @f(i8* %0) #0 {
  %2 = alloca i8*, align 8
  %3 = alloca i32, align 4
  %4 = alloca i32, align 4
  %5 = alloca i32, align 4
  store i8* %0, i8** %2, align 8
  %6 = load i8*, i8** %2, align 8
  %7 = call i64 @strlen(i8* %6) #3
  %8 = trunc i64 %7 to i32
  store i32 %8, i32* %5, align 4
  %9 = load i8*, i8** %2, align 8
  %10 = getelementptr inbounds i8, i8* %9, i64 0
  %11 = load i8, i8* %10, align 1
  %12 = sext i8 %11 to i32
  %13 = icmp eq i32 %12, 48
  br i1 %13, label %26, label %14

14:                                               ; preds = %1
  %15 = load i8*, i8** %2, align 8
  %16 = getelementptr inbounds i8, i8* %15, i64 0
  %17 = load i8, i8* %16, align 1
  %18 = sext i8 %17 to i32
  %19 = icmp eq i32 %18, 45
  br i1 %19, label %20, label %28

20:                                               ; preds = %14
  %21 = load i8*, i8** %2, align 8
  %22 = getelementptr inbounds i8, i8* %21, i64 1
  %23 = load i8, i8* %22, align 1
  %24 = sext i8 %23 to i32
  %25 = icmp eq i32 %24, 48
  br i1 %25, label %26, label %28

26:                                               ; preds = %20, %1
  %27 = call i32 (i8*, ...) @printf(i8* getelementptr inbounds ([3 x i8], [3 x i8]* @.str, i64 0, i64 0))
  br label %110

28:                                               ; preds = %20, %14
  %29 = load i8*, i8** %2, align 8
  %30 = getelementptr inbounds i8, i8* %29, i64 0
  %31 = load i8, i8* %30, align 1
  %32 = sext i8 %31 to i32
  %33 = icmp eq i32 %32, 45
  br i1 %33, label %34, label %72

34:                                               ; preds = %28
  %35 = call i32 (i8*, ...) @printf(i8* getelementptr inbounds ([2 x i8], [2 x i8]* @.str.1, i64 0, i64 0))
  %36 = load i32, i32* %5, align 4
  %37 = sub nsw i32 %36, 1
  store i32 %37, i32* %3, align 4
  br label %38

38:                                               ; preds = %51, %34
  %39 = load i32, i32* %3, align 4
  %40 = icmp sge i32 %39, 1
  br i1 %40, label %41, label %54

41:                                               ; preds = %38
  %42 = load i8*, i8** %2, align 8
  %43 = load i32, i32* %3, align 4
  %44 = sext i32 %43 to i64
  %45 = getelementptr inbounds i8, i8* %42, i64 %44
  %46 = load i8, i8* %45, align 1
  %47 = sext i8 %46 to i32
  %48 = icmp ne i32 %47, 48
  br i1 %48, label %49, label %50

49:                                               ; preds = %41
  br label %54

50:                                               ; preds = %41
  br label %51

51:                                               ; preds = %50
  %52 = load i32, i32* %3, align 4
  %53 = add nsw i32 %52, -1
  store i32 %53, i32* %3, align 4
  br label %38

54:                                               ; preds = %49, %38
  %55 = load i32, i32* %3, align 4
  store i32 %55, i32* %4, align 4
  br label %56

56:                                               ; preds = %67, %54
  %57 = load i32, i32* %4, align 4
  %58 = icmp sge i32 %57, 1
  br i1 %58, label %59, label %70

59:                                               ; preds = %56
  %60 = load i8*, i8** %2, align 8
  %61 = load i32, i32* %4, align 4
  %62 = sext i32 %61 to i64
  %63 = getelementptr inbounds i8, i8* %60, i64 %62
  %64 = load i8, i8* %63, align 1
  %65 = sext i8 %64 to i32
  %66 = call i32 (i8*, ...) @printf(i8* getelementptr inbounds ([3 x i8], [3 x i8]* @.str.2, i64 0, i64 0), i32 %65)
  br label %67

67:                                               ; preds = %59
  %68 = load i32, i32* %4, align 4
  %69 = add nsw i32 %68, -1
  store i32 %69, i32* %4, align 4
  br label %56

70:                                               ; preds = %56
  %71 = call i32 (i8*, ...) @printf(i8* getelementptr inbounds ([2 x i8], [2 x i8]* @.str.3, i64 0, i64 0))
  br label %109

72:                                               ; preds = %28
  %73 = load i32, i32* %5, align 4
  %74 = sub nsw i32 %73, 1
  store i32 %74, i32* %3, align 4
  br label %75

75:                                               ; preds = %88, %72
  %76 = load i32, i32* %3, align 4
  %77 = icmp sge i32 %76, 0
  br i1 %77, label %78, label %91

78:                                               ; preds = %75
  %79 = load i8*, i8** %2, align 8
  %80 = load i32, i32* %3, align 4
  %81 = sext i32 %80 to i64
  %82 = getelementptr inbounds i8, i8* %79, i64 %81
  %83 = load i8, i8* %82, align 1
  %84 = sext i8 %83 to i32
  %85 = icmp ne i32 %84, 48
  br i1 %85, label %86, label %87

86:                                               ; preds = %78
  br label %91

87:                                               ; preds = %78
  br label %88

88:                                               ; preds = %87
  %89 = load i32, i32* %3, align 4
  %90 = add nsw i32 %89, -1
  store i32 %90, i32* %3, align 4
  br label %75

91:                                               ; preds = %86, %75
  %92 = load i32, i32* %3, align 4
  store i32 %92, i32* %4, align 4
  br label %93

93:                                               ; preds = %104, %91
  %94 = load i32, i32* %4, align 4
  %95 = icmp sge i32 %94, 0
  br i1 %95, label %96, label %107

96:                                               ; preds = %93
  %97 = load i8*, i8** %2, align 8
  %98 = load i32, i32* %4, align 4
  %99 = sext i32 %98 to i64
  %100 = getelementptr inbounds i8, i8* %97, i64 %99
  %101 = load i8, i8* %100, align 1
  %102 = sext i8 %101 to i32
  %103 = call i32 (i8*, ...) @printf(i8* getelementptr inbounds ([3 x i8], [3 x i8]* @.str.2, i64 0, i64 0), i32 %102)
  br label %104

104:                                              ; preds = %96
  %105 = load i32, i32* %4, align 4
  %106 = add nsw i32 %105, -1
  store i32 %106, i32* %4, align 4
  br label %93

107:                                              ; preds = %93
  %108 = call i32 (i8*, ...) @printf(i8* getelementptr inbounds ([2 x i8], [2 x i8]* @.str.3, i64 0, i64 0))
  br label %109

109:                                              ; preds = %107, %70
  br label %110

110:                                              ; preds = %109, %26
  ret void
}

; Function Attrs: nounwind readonly
declare dso_local i64 @strlen(i8*) #1

declare dso_local i32 @printf(i8*, ...) #2

; Function Attrs: noinline nounwind uwtable
define dso_local i32 @main() #0 {
  %1 = alloca i32, align 4
  %2 = alloca i32, align 4
  %3 = alloca [10 x i8], align 1
  store i32 0, i32* %1, align 4
  store i32 1, i32* %2, align 4
  br label %4

4:                                                ; preds = %11, %0
  %5 = load i32, i32* %2, align 4
  %6 = icmp sle i32 %5, 6
  br i1 %6, label %7, label %14

7:                                                ; preds = %4
  %8 = getelementptr inbounds [10 x i8], [10 x i8]* %3, i64 0, i64 0
  %9 = call i32 (i8*, ...) bitcast (i32 (...)* @gets to i32 (i8*, ...)*)(i8* %8)
  %10 = getelementptr inbounds [10 x i8], [10 x i8]* %3, i64 0, i64 0
  call void @f(i8* %10)
  br label %11

11:                                               ; preds = %7
  %12 = load i32, i32* %2, align 4
  %13 = add nsw i32 %12, 1
  store i32 %13, i32* %2, align 4
  br label %4

14:                                               ; preds = %4
  ret i32 0
}

declare dso_local i32 @gets(...) #2


!llvm.module.flags = !{!0}
!llvm.ident = !{!1}

!0 = !{i32 1, !"wchar_size", i32 4}
!1 = !{!"clang version 10.0.0-4ubuntu1 "}
